; Function Attrs: mustprogress uwtable
define dso_local noundef ptr @_ZN4Luau6Parser9parseTypeEb(ptr noundef nonnull align 8 dereferenceable(1072) %0, i1 noundef zeroext %1) local_unnamed_addr #2 align 2 {
  %3 = alloca %"struct.Luau::Location", align 4
  %4 = getelementptr inbounds nuw i8, ptr %0, i64 276
  %5 = load i32, ptr %4, align 4, !tbaa !287
  call void @llvm.lifetime.start.p0(i64 16, ptr nonnull %3) #29
  %6 = getelementptr inbounds nuw i8, ptr %0, i64 128
  %7 = getelementptr inbounds nuw i8, ptr %0, i64 132
  call void @llvm.memcpy.p0.p0.i64(ptr noundef nonnull align 4 dereferenceable(16) %3, ptr noundef nonnull align 4 dereferenceable(16) %7, i64 16, i1 false), !tbaa.struct !10
  %8 = load i32, ptr %6, align 8, !tbaa !79
  switch i32 %8, label %9 [
    i32 124, label %12
    i32 38, label %12
  ]

9:                                                ; preds = %2
  %10 = tail call { ptr, ptr } @_ZN4Luau6Parser15parseSimpleTypeEbb(ptr noundef nonnull align 8 dereferenceable(1072) %0, i1 noundef zeroext false, i1 noundef zeroext %1)
  %11 = extractvalue { ptr, ptr } %10, 0
  store i32 %5, ptr %4, align 4, !tbaa !287
  br label %12

12:                                               ; preds = %2, %2, %9
  %.0 = phi ptr [ %11, %9 ], [ null, %2 ], [ null, %2 ]
  %13 = call noundef ptr @_ZN4Luau6Parser15parseTypeSuffixEPNS_7AstTypeERKNS_8LocationE(ptr noundef nonnull align 8 dereferenceable(1072) %0, ptr noundef %.0, ptr noundef nonnull align 4 dereferenceable(16) %3)
  store i32 %5, ptr %4, align 4, !tbaa !287
  call void @llvm.lifetime.end.p0(i64 16, ptr nonnull %3) #29
  ret ptr %13
}